target datalayout = "e-m:e-p270:32:32-p271:32:32-p272:64:64-i64:64-i128:128-f80:128-n8:16:32:64-S128"
target triple = "x86_64-pc-linux-gnu"

%struct.cl_fmap = type { ptr, ptr, ptr, i64, i64, i64, i64, i8, i8, i8, i64, i64, i64, i64, ptr, ptr, ptr, ptr, ptr, ptr, ptr, i8, [16 x i8], i8, [20 x i8], i8, [32 x i8], ptr, ptr }

@.str.40 = private unnamed_addr constant [37 x i8] c"fmap_unneed: inconsistent map state\0A\00", align 1
@.str.41 = private unnamed_addr constant [40 x i8] c"fmap_unneed: unneed on a unlocked page\0A\00", align 1

; Function Attrs: nounwind uwtable
define internal void @fmap_unneed_page(ptr noundef %0, i64 noundef %1) #0 {
  %3 = alloca ptr, align 8
  %4 = alloca i64, align 8
  %5 = alloca i64, align 8
  store ptr %0, ptr %3, align 8
  store i64 %1, ptr %4, align 8
  %6 = load ptr, ptr %3, align 8
  %7 = getelementptr inbounds %struct.cl_fmap, ptr %6, i32 0, i32 27
  %8 = load ptr, ptr %7, align 8
  %9 = load i64, ptr %4, align 8
  %10 = getelementptr inbounds i64, ptr %8, i64 %9
  %11 = load i64, ptr %10, align 8
  store i64 %11, ptr %5, align 8
  %12 = load i64, ptr %5, align 8
  %13 = and i64 %12, 3221225472
  %14 = icmp eq i64 %13, 3221225472
  br i1 %14, label %15, label %40

15:                                               ; preds = %2
  %16 = load i64, ptr %5, align 8
  %17 = and i64 %16, 1073741823
  store i64 %17, ptr %5, align 8
  %18 = load i64, ptr %5, align 8
  %19 = icmp ugt i64 %18, 1
  br i1 %19, label %20, label %28

20:                                               ; preds = %15
  %21 = load ptr, ptr %3, align 8
  %22 = getelementptr inbounds %struct.cl_fmap, ptr %21, i32 0, i32 27
  %23 = load ptr, ptr %22, align 8
  %24 = load i64, ptr %4, align 8
  %25 = getelementptr inbounds i64, ptr %23, i64 %24
  %26 = load i64, ptr %25, align 8
  %27 = add i64 %26, -1
  store i64 %27, ptr %25, align 8
  br label %39

28:                                               ; preds = %15
  %29 = load i64, ptr %5, align 8
  %30 = icmp eq i64 %29, 1
  br i1 %30, label %31, label %37

31:                                               ; preds = %28
  %32 = load ptr, ptr %3, align 8
  %33 = getelementptr inbounds %struct.cl_fmap, ptr %32, i32 0, i32 27
  %34 = load ptr, ptr %33, align 8
  %35 = load i64, ptr %4, align 8
  %36 = getelementptr inbounds i64, ptr %34, i64 %35
  store i64 2147483647, ptr %36, align 8
  br label %38

37:                                               ; preds = %28
  call void (ptr, ...) @cli_errmsg(ptr noundef @.str.40)
  br label %38

38:                                               ; preds = %37, %31
  br label %39

39:                                               ; preds = %38, %20
  br label %41

40:                                               ; preds = %2
  call void (ptr, ...) @cli_warnmsg(ptr noundef @.str.41)
  br label %41

41:                                               ; preds = %40, %39
  ret void
}

; Function Attrs: nounwind uwtable
define internal i64 @fmap_which_page(ptr noundef %0, i64 noundef %1) #0 {
  %3 = alloca ptr, align 8
  %4 = alloca i64, align 8
  store ptr %0, ptr %3, align 8
  store i64 %1, ptr %4, align 8
  %5 = load i64, ptr %4, align 8
  %6 = load ptr, ptr %3, align 8
  %7 = getelementptr inbounds %struct.cl_fmap, ptr %6, i32 0, i32 5
  %8 = load i64, ptr %7, align 8
  %9 = udiv i64 %5, %8
  ret i64 %9
}

; Function Attrs: nounwind uwtable
define internal ptr @handle_need_offstr(ptr noundef %0, i64 noundef %1, i64 noundef %2) #0 {
  %4 = alloca ptr, align 8
  %5 = alloca ptr, align 8
  %6 = alloca i64, align 8
  %7 = alloca i64, align 8
  %8 = alloca i64, align 8
  %9 = alloca i64, align 8
  %10 = alloca i64, align 8
  %11 = alloca ptr, align 8
  %12 = alloca ptr, align 8
  %13 = alloca i64, align 8
  %14 = alloca i64, align 8
  store ptr %0, ptr %5, align 8
  store i64 %1, ptr %6, align 8
  store i64 %2, ptr %7, align 8
  %15 = load ptr, ptr %5, align 8
  %16 = getelementptr inbounds %struct.cl_fmap, ptr %15, i32 0, i32 11
  %17 = load i64, ptr %16, align 8
  %18 = load i64, ptr %6, align 8
  %19 = add i64 %18, %17
  store i64 %19, ptr %6, align 8
  %20 = load ptr, ptr %5, align 8
  %21 = getelementptr inbounds %struct.cl_fmap, ptr %20, i32 0, i32 2
  %22 = load ptr, ptr %21, align 8
  %23 = load i64, ptr %6, align 8
  %24 = getelementptr inbounds i8, ptr %22, i64 %23
  store ptr %24, ptr %11, align 8
  %25 = load i64, ptr %7, align 8
  %26 = icmp ne i64 %25, 0
  br i1 %26, label %27, label %35

27:                                               ; preds = %3
  %28 = load i64, ptr %7, align 8
  %29 = load ptr, ptr %5, align 8
  %30 = getelementptr inbounds %struct.cl_fmap, ptr %29, i32 0, i32 12
  %31 = load i64, ptr %30, align 8
  %32 = load i64, ptr %6, align 8
  %33 = sub i64 %31, %32
  %34 = icmp ugt i64 %28, %33
  br i1 %34, label %35, label %41

35:                                               ; preds = %27, %3
  %36 = load ptr, ptr %5, align 8
  %37 = getelementptr inbounds %struct.cl_fmap, ptr %36, i32 0, i32 12
  %38 = load i64, ptr %37, align 8
  %39 = load i64, ptr %6, align 8
  %40 = sub i64 %38, %39
  store i64 %40, ptr %7, align 8
  br label %41

41:                                               ; preds = %35, %27
  %42 = load ptr, ptr %5, align 8
  %43 = getelementptr inbounds %struct.cl_fmap, ptr %42, i32 0, i32 13
  %44 = load i64, ptr %43, align 8
  %45 = icmp ugt i64 %44, 0
  br i1 %45, label %46, label %91

46:                                               ; preds = %41
  %47 = load i64, ptr %7, align 8
  %48 = icmp ugt i64 %47, 0
  br i1 %48, label %49, label %91

49:                                               ; preds = %46
  %50 = load i64, ptr %7, align 8
  %51 = load ptr, ptr %5, align 8
  %52 = getelementptr inbounds %struct.cl_fmap, ptr %51, i32 0, i32 13
  %53 = load i64, ptr %52, align 8
  %54 = icmp ule i64 %50, %53
  br i1 %54, label %55, label %91

55:                                               ; preds = %49
  %56 = load i64, ptr %6, align 8
  %57 = load ptr, ptr %5, align 8
  %58 = getelementptr inbounds %struct.cl_fmap, ptr %57, i32 0, i32 11
  %59 = load i64, ptr %58, align 8
  %60 = icmp uge i64 %56, %59
  br i1 %60, label %61, label %91

61:                                               ; preds = %55
  %62 = load i64, ptr %6, align 8
  %63 = load i64, ptr %7, align 8
  %64 = add i64 %62, %63
  %65 = load ptr, ptr %5, align 8
  %66 = getelementptr inbounds %struct.cl_fmap, ptr %65, i32 0, i32 11
  %67 = load i64, ptr %66, align 8
  %68 = load ptr, ptr %5, align 8
  %69 = getelementptr inbounds %struct.cl_fmap, ptr %68, i32 0, i32 13
  %70 = load i64, ptr %69, align 8
  %71 = add i64 %67, %70
  %72 = icmp ule i64 %64, %71
  br i1 %72, label %73, label %91

73:                                               ; preds = %61
  %74 = load i64, ptr %6, align 8
  %75 = load i64, ptr %7, align 8
  %76 = add i64 %74, %75
  %77 = load ptr, ptr %5, align 8
  %78 = getelementptr inbounds %struct.cl_fmap, ptr %77, i32 0, i32 11
  %79 = load i64, ptr %78, align 8
  %80 = icmp ugt i64 %76, %79
  br i1 %80, label %81, label %91

81:                                               ; preds = %73
  %82 = load i64, ptr %6, align 8
  %83 = load ptr, ptr %5, align 8
  %84 = getelementptr inbounds %struct.cl_fmap, ptr %83, i32 0, i32 11
  %85 = load i64, ptr %84, align 8
  %86 = load ptr, ptr %5, align 8
  %87 = getelementptr inbounds %struct.cl_fmap, ptr %86, i32 0, i32 13
  %88 = load i64, ptr %87, align 8
  %89 = add i64 %85, %88
  %90 = icmp ult i64 %82, %89
  br i1 %90, label %92, label %91

91:                                               ; preds = %81, %73, %61, %55, %49, %46, %41
  store ptr null, ptr %4, align 8
  br label %195

92:                                               ; preds = %81
  %93 = load ptr, ptr %5, align 8
  call void @fmap_aging(ptr noundef %93)
  %94 = load ptr, ptr %5, align 8
  %95 = load i64, ptr %6, align 8
  %96 = call i64 @fmap_which_page(ptr noundef %94, i64 noundef %95)
  store i64 %96, ptr %9, align 8
  %97 = load ptr, ptr %5, align 8
  %98 = load i64, ptr %6, align 8
  %99 = load i64, ptr %7, align 8
  %100 = add i64 %98, %99
  %101 = sub i64 %100, 1
  %102 = call i64 @fmap_which_page(ptr noundef %97, i64 noundef %101)
  store i64 %102, ptr %10, align 8
  %103 = load i64, ptr %9, align 8
  store i64 %103, ptr %8, align 8
  br label %104

104:                                              ; preds = %179, %92
  %105 = load i64, ptr %8, align 8
  %106 = load i64, ptr %10, align 8
  %107 = icmp ule i64 %105, %106
  br i1 %107, label %108, label %182

108:                                              ; preds = %104
  %109 = load ptr, ptr %5, align 8
  %110 = getelementptr inbounds %struct.cl_fmap, ptr %109, i32 0, i32 2
  %111 = load ptr, ptr %110, align 8
  %112 = load i64, ptr %8, align 8
  %113 = load ptr, ptr %5, align 8
  %114 = getelementptr inbounds %struct.cl_fmap, ptr %113, i32 0, i32 5
  %115 = load i64, ptr %114, align 8
  %116 = mul i64 %112, %115
  %117 = getelementptr inbounds i8, ptr %111, i64 %116
  store ptr %117, ptr %12, align 8
  %118 = load ptr, ptr %5, align 8
  %119 = load i64, ptr %8, align 8
  %120 = call i32 @fmap_readpage(ptr noundef %118, i64 noundef %119, i64 noundef 1, i64 noundef 1)
  %121 = icmp ne i32 %120, 0
  br i1 %121, label %122, label %125

122:                                              ; preds = %108
  %123 = load i64, ptr %8, align 8
  %124 = sub i64 %123, 1
  store i64 %124, ptr %10, align 8
  br label %182

125:                                              ; preds = %108
  %126 = load i64, ptr %8, align 8
  %127 = load i64, ptr %9, align 8
  %128 = icmp eq i64 %126, %127
  br i1 %128, label %129, label %152

129:                                              ; preds = %125
  %130 = load i64, ptr %6, align 8
  %131 = load ptr, ptr %5, align 8
  %132 = getelementptr inbounds %struct.cl_fmap, ptr %131, i32 0, i32 5
  %133 = load i64, ptr %132, align 8
  %134 = urem i64 %130, %133
  store i64 %134, ptr %13, align 8
  %135 = load i64, ptr %7, align 8
  %136 = load ptr, ptr %5, align 8
  %137 = getelementptr inbounds %struct.cl_fmap, ptr %136, i32 0, i32 5
  %138 = load i64, ptr %137, align 8
  %139 = load i64, ptr %13, align 8
  %140 = sub i64 %138, %139
  %141 = icmp ult i64 %135, %140
  br i1 %141, label %142, label %144

142:                                              ; preds = %129
  %143 = load i64, ptr %7, align 8
  br label %150

144:                                              ; preds = %129
  %145 = load ptr, ptr %5, align 8
  %146 = getelementptr inbounds %struct.cl_fmap, ptr %145, i32 0, i32 5
  %147 = load i64, ptr %146, align 8
  %148 = load i64, ptr %13, align 8
  %149 = sub i64 %147, %148
  br label %150

150:                                              ; preds = %144, %142
  %151 = phi i64 [ %143, %142 ], [ %149, %144 ]
  store i64 %151, ptr %14, align 8
  br label %166

152:                                              ; preds = %125
  store i64 0, ptr %13, align 8
  %153 = load i64, ptr %7, align 8
  %154 = load ptr, ptr %5, align 8
  %155 = getelementptr inbounds %struct.cl_fmap, ptr %154, i32 0, i32 5
  %156 = load i64, ptr %155, align 8
  %157 = icmp ult i64 %153, %156
  br i1 %157, label %158, label %160

158:                                              ; preds = %152
  %159 = load i64, ptr %7, align 8
  br label %164

160:                                              ; preds = %152
  %161 = load ptr, ptr %5, align 8
  %162 = getelementptr inbounds %struct.cl_fmap, ptr %161, i32 0, i32 5
  %163 = load i64, ptr %162, align 8
  br label %164

164:                                              ; preds = %160, %158
  %165 = phi i64 [ %159, %158 ], [ %163, %160 ]
  store i64 %165, ptr %14, align 8
  br label %166

166:                                              ; preds = %164, %150
  %167 = load i64, ptr %14, align 8
  %168 = load i64, ptr %7, align 8
  %169 = sub i64 %168, %167
  store i64 %169, ptr %7, align 8
  %170 = load ptr, ptr %12, align 8
  %171 = load i64, ptr %13, align 8
  %172 = getelementptr inbounds i8, ptr %170, i64 %171
  %173 = load i64, ptr %14, align 8
  %174 = call ptr @memchr(ptr noundef %172, i32 noundef 0, i64 noundef %173) #11
  %175 = icmp ne ptr %174, null
  br i1 %175, label %176, label %178

176:                                              ; preds = %166
  %177 = load ptr, ptr %11, align 8
  store ptr %177, ptr %4, align 8
  br label %195

178:                                              ; preds = %166
  br label %179

179:                                              ; preds = %178
  %180 = load i64, ptr %8, align 8
  %181 = add i64 %180, 1
  store i64 %181, ptr %8, align 8
  br label %104

182:                                              ; preds = %122, %104
  %183 = load i64, ptr %9, align 8
  store i64 %183, ptr %8, align 8
  br label %184

184:                                              ; preds = %191, %182
  %185 = load i64, ptr %8, align 8
  %186 = load i64, ptr %10, align 8
  %187 = icmp ule i64 %185, %186
  br i1 %187, label %188, label %194

188:                                              ; preds = %184
  %189 = load ptr, ptr %5, align 8
  %190 = load i64, ptr %8, align 8
  call void @fmap_unneed_page(ptr noundef %189, i64 noundef %190)
  br label %191

191:                                              ; preds = %188
  %192 = load i64, ptr %8, align 8
  %193 = add i64 %192, 1
  store i64 %193, ptr %8, align 8
  br label %184

194:                                              ; preds = %184
  store ptr null, ptr %4, align 8
  br label %195

195:                                              ; preds = %194, %176, %91
  %196 = load ptr, ptr %4, align 8
  ret ptr %196
}