; Function Attrs: nounwind uwtable
define internal ptr @handle_need_offstr(ptr nocapture noundef %0, i64 noundef %1, i64 noundef %2) #0 {
._crit_edge:
  %3 = getelementptr inbounds i8, ptr %0, i64 72
  %4 = load i64, ptr %3, align 8
  %5 = add i64 %4, %1
  %6 = getelementptr inbounds i8, ptr %0, i64 16
  %7 = load ptr, ptr %6, align 8
  %8 = getelementptr inbounds i8, ptr %7, i64 %5
  %.not = icmp eq i64 %2, 0
  %.phi.trans.insert = getelementptr inbounds i8, ptr %0, i64 80
  %.pre = load i64, ptr %.phi.trans.insert, align 8
  %.pre114 = sub i64 %.pre, %5
  %spec.select = tail call i64 @llvm.umin.i64(i64 %.pre114, i64 %2)
  %.072 = select i1 %.not, i64 %.pre114, i64 %spec.select
  %9 = getelementptr inbounds i8, ptr %0, i64 88
  %10 = load i64, ptr %9, align 8
  %11 = icmp eq i64 %10, 0
  %12 = add i64 %.072, -1
  %13 = icmp uge i64 %12, %10
  %or.cond91 = select i1 %11, i1 true, i1 %13
  %.not85 = icmp ult i64 %5, %4
  %or.cond97 = select i1 %or.cond91, i1 true, i1 %.not85
  br i1 %or.cond97, label %.loopexit, label %14

14:                                               ; preds = %._crit_edge
  %15 = add i64 %.072, %5
  %16 = add i64 %10, %4
  %.not86 = icmp ule i64 %15, %16
  %17 = icmp ugt i64 %15, %4
  %or.cond92 = and i1 %17, %.not86
  %18 = icmp ult i64 %5, %16
  %or.cond93 = and i1 %18, %or.cond92
  br i1 %or.cond93, label %19, label %.loopexit

19:                                               ; preds = %14
  tail call fastcc void @fmap_aging(ptr noundef nonnull %0)
  %20 = getelementptr i8, ptr %0, i64 40
  %.val = load i64, ptr %20, align 8
  %21 = udiv i64 %5, %.val
  %22 = add i64 %15, -1
  %23 = udiv i64 %22, %.val
  %.not87105 = icmp ugt i64 %21, %23
  br i1 %.not87105, label %.loopexit101, label %.lr.ph

.lr.ph:                                           ; preds = %19, %40
  %24 = phi i64 [ %33, %40 ], [ %.val, %19 ]
  %.1107 = phi i64 [ %41, %40 ], [ %.072, %19 ]
  %.073106 = phi i64 [ %42, %40 ], [ %21, %19 ]
  %25 = load ptr, ptr %6, align 8
  %26 = mul i64 %24, %.073106
  %27 = getelementptr inbounds i8, ptr %25, i64 %26
  %28 = tail call fastcc i32 @fmap_readpage(ptr noundef nonnull %0, i64 noundef %.073106, i64 noundef 1, i64 noundef 1), !range !4
  %.not88 = icmp eq i32 %28, 0
  br i1 %.not88, label %31, label %29

29:                                               ; preds = %.lr.ph
  %30 = add i64 %.073106, -1
  br label %.loopexit101

31:                                               ; preds = %.lr.ph
  %32 = icmp eq i64 %.073106, %21
  %33 = load i64, ptr %20, align 8
  br i1 %32, label %34, label %37

34:                                               ; preds = %31
  %35 = urem i64 %5, %33
  %36 = sub i64 %33, %35
  br label %37

37:                                               ; preds = %31, %34
  %.sink = phi i64 [ %36, %34 ], [ %33, %31 ]
  %.069 = phi i64 [ %35, %34 ], [ 0, %31 ]
  %.1.94 = tail call i64 @llvm.umin.i64(i64 %.1107, i64 %.sink)
  %38 = getelementptr inbounds i8, ptr %27, i64 %.069
  %39 = tail call ptr @memchr(ptr noundef %38, i32 noundef 0, i64 noundef %.1.94) #21
  %.not89 = icmp eq ptr %39, null
  br i1 %.not89, label %40, label %.loopexit

40:                                               ; preds = %37
  %41 = sub i64 %.1107, %.1.94
  %42 = add i64 %.073106, 1
  %.not87 = icmp ugt i64 %42, %23
  br i1 %.not87, label %.loopexit101, label %.lr.ph

.loopexit101:                                     ; preds = %40, %19, %29
  %.071 = phi i64 [ %30, %29 ], [ %23, %19 ], [ %23, %40 ]
  %.not90108 = icmp ugt i64 %21, %.071
  br i1 %.not90108, label %.loopexit, label %.lr.ph110

.lr.ph110:                                        ; preds = %.loopexit101
  %43 = getelementptr i8, ptr %0, i64 224
  br label %44

44:                                               ; preds = %.lr.ph110, %fmap_unneed_page.exit
  %.174109 = phi i64 [ %21, %.lr.ph110 ], [ %59, %fmap_unneed_page.exit ]
  %.val96 = load ptr, ptr %43, align 8
  %45 = getelementptr inbounds i64, ptr %.val96, i64 %.174109
  %46 = load i64, ptr %45, align 8
  %47 = and i64 %46, 3221225472
  %48 = icmp eq i64 %47, 3221225472
  br i1 %48, label %49, label %58

49:                                               ; preds = %44
  %50 = and i64 %46, 1073741823
  %51 = icmp ugt i64 %50, 1
  br i1 %51, label %52, label %54

52:                                               ; preds = %49
  %53 = add nsw i64 %46, -1
  store i64 %53, ptr %45, align 8
  br label %fmap_unneed_page.exit

54:                                               ; preds = %49
  %55 = icmp eq i64 %50, 1
  br i1 %55, label %56, label %57

56:                                               ; preds = %54
  store i64 2147483647, ptr %45, align 8
  br label %fmap_unneed_page.exit

57:                                               ; preds = %54
  tail call void (ptr, ...) @cli_errmsg(ptr noundef nonnull @.str.40) #18
  br label %fmap_unneed_page.exit

58:                                               ; preds = %44
  tail call void (ptr, ...) @cli_warnmsg(ptr noundef nonnull @.str.41) #18
  br label %fmap_unneed_page.exit

fmap_unneed_page.exit:                            ; preds = %52, %56, %57, %58
  %59 = add i64 %.174109, 1
  %.not90 = icmp ugt i64 %59, %.071
  br i1 %.not90, label %.loopexit, label %44

.loopexit:                                        ; preds = %37, %fmap_unneed_page.exit, %.loopexit101, %._crit_edge, %14
  %.070 = phi ptr [ null, %14 ], [ null, %._crit_edge ], [ null, %.loopexit101 ], [ null, %fmap_unneed_page.exit ], [ %8, %37 ]
  ret ptr %.070
}